target datalayout = "e-m:e-p270:32:32-p271:32:32-p272:64:64-i64:64-i128:128-f80:128-n8:16:32:64-S128"
target triple = "x86_64-pc-linux-gnu"

%struct.slurm_step_id_msg = type { i64, i32, i32, i32 }
%struct.add_to_listjobs_list_args = type { ptr, ptr }
%struct.step_location = type { ptr, ptr, i16, %struct.slurm_step_id_msg }
%struct.listjobs_info = type { i32 }

@.str.22 = private unnamed_addr constant [11 x i8] c"info_job.c\00", align 1
@__func__._add_to_listjobs_list = private unnamed_addr constant [22 x i8] c"_add_to_listjobs_list\00", align 1

; Function Attrs: nounwind uwtable
define internal i32 @_add_to_listjobs_list(ptr noundef %0, ptr noundef %1) #0 {
  %3 = alloca i32, align 4
  %4 = alloca ptr, align 8
  %5 = alloca ptr, align 8
  %6 = alloca ptr, align 8
  %7 = alloca %struct.slurm_step_id_msg, align 8
  %8 = alloca ptr, align 8
  %9 = alloca ptr, align 8
  %10 = alloca ptr, align 8
  %11 = alloca ptr, align 8
  %12 = alloca ptr, align 8
  %13 = alloca i32, align 4
  store ptr %0, ptr %4, align 8
  store ptr %1, ptr %5, align 8
  call void @llvm.lifetime.start.p0(i64 8, ptr %6) #9
  %14 = load ptr, ptr %4, align 8
  store ptr %14, ptr %6, align 8
  call void @llvm.lifetime.start.p0(i64 24, ptr %7) #9
  %15 = load ptr, ptr %6, align 8
  %16 = getelementptr inbounds nuw %struct.step_location, ptr %15, i32 0, i32 3
  call void @llvm.memcpy.p0.p0.i64(ptr align 8 %7, ptr align 8 %16, i64 24, i1 false)
  call void @llvm.lifetime.start.p0(i64 8, ptr %8) #9
  call void @llvm.lifetime.start.p0(i64 8, ptr %9) #9
  call void @llvm.lifetime.start.p0(i64 8, ptr %10) #9
  %17 = load ptr, ptr %5, align 8
  store ptr %17, ptr %10, align 8
  call void @llvm.lifetime.start.p0(i64 8, ptr %11) #9
  %18 = load ptr, ptr %10, align 8
  %19 = getelementptr inbounds nuw %struct.add_to_listjobs_list_args, ptr %18, i32 0, i32 1
  %20 = load ptr, ptr %19, align 8
  store ptr %20, ptr %11, align 8
  call void @llvm.lifetime.start.p0(i64 8, ptr %12) #9
  %21 = load ptr, ptr %10, align 8
  %22 = getelementptr inbounds nuw %struct.add_to_listjobs_list_args, ptr %21, i32 0, i32 0
  %23 = load ptr, ptr %22, align 8
  store ptr %23, ptr %12, align 8
  %24 = load ptr, ptr %12, align 8
  %25 = getelementptr inbounds nuw %struct.slurm_step_id_msg, ptr %7, i32 0, i32 1
  %26 = call ptr @list_find_first(ptr noundef %24, ptr noundef @slurm_find_uint32_in_list, ptr noundef %25)
  %27 = icmp ne ptr %26, null
  br i1 %27, label %28, label %29

28:                                               ; preds = %2
  store i32 0, ptr %3, align 4
  store i32 1, ptr %13, align 4
  br label %43

29:                                               ; preds = %2
  %30 = call ptr @slurm_xcalloc(i64 noundef 1, i64 noundef 4, i1 noundef zeroext true, i1 noundef zeroext false, ptr noundef @.str.22, i32 noundef 1481, ptr noundef @__func__._add_to_listjobs_list)
  store ptr %30, ptr %9, align 8
  %31 = getelementptr inbounds nuw %struct.slurm_step_id_msg, ptr %7, i32 0, i32 1
  %32 = load i32, ptr %31, align 8
  %33 = load ptr, ptr %9, align 8
  store i32 %32, ptr %33, align 4
  %34 = load ptr, ptr %12, align 8
  %35 = load ptr, ptr %9, align 8
  call void @list_append(ptr noundef %34, ptr noundef %35)
  %36 = call ptr @slurm_xcalloc(i64 noundef 1, i64 noundef 4, i1 noundef zeroext true, i1 noundef zeroext false, ptr noundef @.str.22, i32 noundef 1485, ptr noundef @__func__._add_to_listjobs_list)
  store ptr %36, ptr %8, align 8
  %37 = getelementptr inbounds nuw %struct.slurm_step_id_msg, ptr %7, i32 0, i32 1
  %38 = load i32, ptr %37, align 8
  %39 = load ptr, ptr %8, align 8
  %40 = getelementptr inbounds nuw %struct.listjobs_info, ptr %39, i32 0, i32 0
  store i32 %38, ptr %40, align 4
  %41 = load ptr, ptr %11, align 8
  %42 = load ptr, ptr %8, align 8
  call void @list_append(ptr noundef %41, ptr noundef %42)
  store i32 0, ptr %3, align 4
  store i32 1, ptr %13, align 4
  br label %43

43:                                               ; preds = %29, %28
  call void @llvm.lifetime.end.p0(i64 8, ptr %12) #9
  call void @llvm.lifetime.end.p0(i64 8, ptr %11) #9
  call void @llvm.lifetime.end.p0(i64 8, ptr %10) #9
  call void @llvm.lifetime.end.p0(i64 8, ptr %9) #9
  call void @llvm.lifetime.end.p0(i64 8, ptr %8) #9
  call void @llvm.lifetime.end.p0(i64 24, ptr %7) #9
  call void @llvm.lifetime.end.p0(i64 8, ptr %6) #9
  %44 = load i32, ptr %3, align 4
  ret i32 %44
}