; Function Attrs: nounwind uwtable
define internal noundef i32 @_add_to_listjobs_list(ptr noundef readonly captures(none) %0, ptr noundef readonly captures(none) %1) #0 {
  %3 = alloca %struct.slurm_step_id_msg, align 8
  call void @llvm.lifetime.start.p0(i64 24, ptr nonnull %3) #16
  %4 = getelementptr inbounds nuw i8, ptr %0, i64 24
  call void @llvm.memcpy.p0.p0.i64(ptr noundef nonnull align 8 dereferenceable(24) %3, ptr noundef nonnull align 8 dereferenceable(24) %4, i64 24, i1 false)
  %5 = getelementptr inbounds nuw i8, ptr %1, i64 8
  %6 = load ptr, ptr %5, align 8
  %7 = load ptr, ptr %1, align 8
  %8 = getelementptr inbounds nuw i8, ptr %3, i64 8
  %9 = call ptr @list_find_first(ptr noundef %7, ptr noundef nonnull @slurm_find_uint32_in_list, ptr noundef nonnull %8) #16
  %.not = icmp eq ptr %9, null
  br i1 %.not, label %10, label %15

10:                                               ; preds = %2
  %11 = call ptr @slurm_xcalloc(i64 noundef 1, i64 noundef 4, i1 noundef zeroext true, i1 noundef zeroext false, ptr noundef nonnull @.str.22, i32 noundef 1481, ptr noundef nonnull @__func__._add_to_listjobs_list) #16
  %12 = load i32, ptr %8, align 8
  store i32 %12, ptr %11, align 4
  call void @list_append(ptr noundef %7, ptr noundef nonnull %11) #16
  %13 = call ptr @slurm_xcalloc(i64 noundef 1, i64 noundef 4, i1 noundef zeroext true, i1 noundef zeroext false, ptr noundef nonnull @.str.22, i32 noundef 1485, ptr noundef nonnull @__func__._add_to_listjobs_list) #16
  %14 = load i32, ptr %8, align 8
  store i32 %14, ptr %13, align 4
  call void @list_append(ptr noundef %6, ptr noundef nonnull %13) #16
  br label %15

15:                                               ; preds = %2, %10
  call void @llvm.lifetime.end.p0(i64 24, ptr nonnull %3) #16
  ret i32 0
}